target datalayout = "e-m:e-p270:32:32-p271:32:32-p272:64:64-i64:64-i128:128-f80:128-n8:16:32:64-S128"
target triple = "x86_64-pc-linux-gnu"

@proto_register_oran.ext_ett = internal global [27 x ptr] zeroinitializer, align 16
@ett_oran_c_section_extension = internal global [27 x i32] zeroinitializer, align 16
@.str.822 = private unnamed_addr constant [20 x i8] c"O-RAN Fronthaul CUS\00", align 1
@.str.823 = private unnamed_addr constant [13 x i8] c"O-RAN FH CUS\00", align 1
@.str.824 = private unnamed_addr constant [12 x i8] c"oran_fh_cus\00", align 1
@proto_oran = internal global i32 0, align 4
@.str.825 = private unnamed_addr constant [12 x i8] c"oran-fh-cus\00", align 1
@oran_tap = internal global i32 -1, align 4
@.str.826 = private unnamed_addr constant [21 x i8] c"oran.du_port_id_bits\00", align 1
@.str.827 = private unnamed_addr constant [20 x i8] c"DU Port ID bits [a]\00", align 1
@.str.828 = private unnamed_addr constant [63 x i8] c"The bit width of DU Port ID - sum of a,b,c&d (eAxC) must be 16\00", align 1
@pref_du_port_id_bits = internal global i32 4, align 4
@.str.829 = private unnamed_addr constant [24 x i8] c"oran.bandsector_id_bits\00", align 1
@.str.830 = private unnamed_addr constant [23 x i8] c"BandSector ID bits [b]\00", align 1
@.str.831 = private unnamed_addr constant [66 x i8] c"The bit width of BandSector ID - sum of a,b,c&d (eAxC) must be 16\00", align 1
@pref_bandsector_id_bits = internal global i32 4, align 4
@.str.832 = private unnamed_addr constant [16 x i8] c"oran.cc_id_bits\00", align 1
@.str.833 = private unnamed_addr constant [15 x i8] c"CC ID bits [c]\00", align 1
@.str.834 = private unnamed_addr constant [58 x i8] c"The bit width of CC ID - sum of a,b,c&d (eAxC) must be 16\00", align 1
@pref_cc_id_bits = internal global i32 4, align 4
@.str.835 = private unnamed_addr constant [21 x i8] c"oran.ru_port_id_bits\00", align 1
@.str.836 = private unnamed_addr constant [20 x i8] c"RU Port ID bits [d]\00", align 1
@.str.837 = private unnamed_addr constant [63 x i8] c"The bit width of RU Port ID - sum of a,b,c&d (eAxC) must be 16\00", align 1
@pref_ru_port_id_bits = internal global i32 4, align 4
@.str.838 = private unnamed_addr constant [20 x i8] c"oran.iq_bitwidth_up\00", align 1
@.str.839 = private unnamed_addr constant [19 x i8] c"IQ Bitwidth Uplink\00", align 1
@.str.840 = private unnamed_addr constant [58 x i8] c"The bit width of a sample in the Uplink (if no udcompHdr)\00", align 1
@pref_sample_bit_width_uplink = internal global i32 14, align 4
@.str.841 = private unnamed_addr constant [16 x i8] c"oran.ud_comp_up\00", align 1
@.str.842 = private unnamed_addr constant [29 x i8] c"Uplink User Data Compression\00", align 1
@pref_iqCompressionUplink = internal global i32 1, align 4
@.str.843 = private unnamed_addr constant [20 x i8] c"oran.ud_comp_hdr_up\00", align 1
@.str.844 = private unnamed_addr constant [38 x i8] c"udCompHdr field is present for uplink\00", align 1
@.str.845 = private unnamed_addr constant [205 x i8] c"The udCompHdr field in U-Plane messages may or may not be present, depending on the configuration of the O-RU. This preference instructs the dissector to expect this field to be present in uplink messages\00", align 1
@pref_includeUdCompHeaderUplink = internal global i32 2, align 4
@.str.846 = private unnamed_addr constant [22 x i8] c"oran.iq_bitwidth_down\00", align 1
@.str.847 = private unnamed_addr constant [21 x i8] c"IQ Bitwidth Downlink\00", align 1
@.str.848 = private unnamed_addr constant [60 x i8] c"The bit width of a sample in the Downlink (if no udcompHdr)\00", align 1
@pref_sample_bit_width_downlink = internal global i32 14, align 4
@.str.849 = private unnamed_addr constant [18 x i8] c"oran.ud_comp_down\00", align 1
@.str.850 = private unnamed_addr constant [31 x i8] c"Downlink User Data Compression\00", align 1
@pref_iqCompressionDownlink = internal global i32 1, align 4
@.str.851 = private unnamed_addr constant [22 x i8] c"oran.ud_comp_hdr_down\00", align 1
@.str.852 = private unnamed_addr constant [40 x i8] c"udCompHdr field is present for downlink\00", align 1
@.str.853 = private unnamed_addr constant [207 x i8] c"The udCompHdr field in U-Plane messages may or may not be present, depending on the configuration of the O-RU. This preference instructs the dissector to expect this field to be present in downlink messages\00", align 1
@pref_includeUdCompHeaderDownlink = internal global i32 2, align 4
@.str.854 = private unnamed_addr constant [27 x i8] c"oran.rbs_in_uplane_section\00", align 1
@.str.855 = private unnamed_addr constant [37 x i8] c"Total RBs in User-Plane data section\00", align 1
@.str.856 = private unnamed_addr constant [42 x i8] c"This is used if numPrbu is signalled as 0\00", align 1
@pref_data_plane_section_total_rbs = internal global i32 273, align 4
@.str.857 = private unnamed_addr constant [28 x i8] c"oran.num_weights_per_bundle\00", align 1
@.str.858 = private unnamed_addr constant [29 x i8] c"Number of weights per bundle\00", align 1
@.str.859 = private unnamed_addr constant [68 x i8] c"Used in decoding of section extension type 11 (Flexible BF weights)\00", align 1
@pref_num_weights_per_bundle = internal global i32 32, align 4
@.str.860 = private unnamed_addr constant [21 x i8] c"oran.num_bf_antennas\00", align 1
@.str.861 = private unnamed_addr constant [22 x i8] c"Number of BF Antennas\00", align 1
@.str.862 = private unnamed_addr constant [50 x i8] c"Number of BF Antennas (used for C section type 6)\00", align 1
@pref_num_bf_antennas = internal global i32 32, align 4
@.str.863 = private unnamed_addr constant [21 x i8] c"oran.show_iq_samples\00", align 1
@.str.864 = private unnamed_addr constant [22 x i8] c"Show IQ Sample values\00", align 1
@.str.865 = private unnamed_addr constant [64 x i8] c"When enabled, for U-Plane frames show each I and Q value in PRB\00", align 1
@pref_showIQSampleValues = internal global i8 1, align 1
@.str.866 = private unnamed_addr constant [20 x i8] c"oran.num_bf_weights\00", align 1
@.str.867 = private unnamed_addr constant [23 x i8] c"oran.support_udcomplen\00", align 1
@.str.868 = private unnamed_addr constant [20 x i8] c"udCompLen supported\00", align 1
@.str.869 = private unnamed_addr constant [88 x i8] c"When enabled, U-Plane messages with relevant compression schemes will include udCompLen\00", align 1
@pref_support_udcompLen = internal global i32 2, align 4
@.str.870 = private unnamed_addr constant [34 x i8] c"oran.st6_4byte_alignment_required\00", align 1
@.str.871 = private unnamed_addr constant [38 x i8] c"Use 4-byte alignment for ST6 sections\00", align 1
@.str.872 = private unnamed_addr constant [28 x i8] c"Default is 1-byte alignment\00", align 1
@st6_4byte_alignment = internal global i8 0, align 1
@flow_states_table = internal global ptr null, align 8
@flow_results_table = internal global ptr null, align 8

; Function Attrs: null_pointer_is_valid sspstrong uwtable
define hidden void @proto_register_oran() #0 {
  %1 = alloca i32, align 4
  %2 = alloca ptr, align 8
  %3 = alloca ptr, align 8
  call void @llvm.lifetime.start.p0(i64 4, ptr %1) #12
  store i32 0, ptr %1, align 4
  br label %4

4:                                                ; preds = %15, %0
  %5 = load i32, ptr %1, align 4
  %6 = icmp ult i32 %5, 27
  br i1 %6, label %8, label %7

7:                                                ; preds = %4
  call void @llvm.lifetime.end.p0(i64 4, ptr %1) #12
  br label %18

8:                                                ; preds = %4
  %9 = load i32, ptr %1, align 4
  %10 = zext i32 %9 to i64
  %11 = getelementptr [27 x i32], ptr @ett_oran_c_section_extension, i64 0, i64 %10
  %12 = load i32, ptr %1, align 4
  %13 = zext i32 %12 to i64
  %14 = getelementptr [27 x ptr], ptr @proto_register_oran.ext_ett, i64 0, i64 %13
  store ptr %11, ptr %14, align 8
  br label %15

15:                                               ; preds = %8
  %16 = load i32, ptr %1, align 4
  %17 = add i32 %16, 1
  store i32 %17, ptr %1, align 4
  br label %4, !llvm.loop !6

18:                                               ; preds = %7
  call void @llvm.lifetime.start.p0(i64 8, ptr %2) #12
  %19 = call i32 @proto_register_protocol(ptr noundef @.str.822, ptr noundef @.str.823, ptr noundef @.str.824)
  store i32 %19, ptr @proto_oran, align 4
  %20 = load i32, ptr @proto_oran, align 4
  %21 = call ptr @register_dissector(ptr noundef @.str.824, ptr noundef @dissect_oran, i32 noundef %20)
  %22 = call i32 @register_tap(ptr noundef @.str.825)
  store i32 %22, ptr @oran_tap, align 4
  %23 = load i32, ptr @proto_oran, align 4
  call void @proto_register_field_array(i32 noundef %23, ptr noundef @proto_register_oran.hf, i32 noundef 309)
  call void @proto_register_subtree_array(ptr noundef @proto_register_oran.ett, i32 noundef 38)
  call void @proto_register_subtree_array(ptr noundef @proto_register_oran.ext_ett, i32 noundef 27)
  %24 = load i32, ptr @proto_oran, align 4
  %25 = call ptr @expert_register_protocol(i32 noundef %24)
  store ptr %25, ptr %2, align 8
  %26 = load ptr, ptr %2, align 8
  call void @expert_register_field_array(ptr noundef %26, ptr noundef @proto_register_oran.ei, i32 noundef 42)
  call void @llvm.lifetime.start.p0(i64 8, ptr %3) #12
  %27 = load i32, ptr @proto_oran, align 4
  %28 = call ptr @prefs_register_protocol(i32 noundef %27, ptr noundef null)
  store ptr %28, ptr %3, align 8
  %29 = load ptr, ptr %3, align 8
  call void @prefs_register_uint_preference(ptr noundef %29, ptr noundef @.str.826, ptr noundef @.str.827, ptr noundef @.str.828, i32 noundef 10, ptr noundef @pref_du_port_id_bits)
  %30 = load ptr, ptr %3, align 8
  call void @prefs_register_uint_preference(ptr noundef %30, ptr noundef @.str.829, ptr noundef @.str.830, ptr noundef @.str.831, i32 noundef 10, ptr noundef @pref_bandsector_id_bits)
  %31 = load ptr, ptr %3, align 8
  call void @prefs_register_uint_preference(ptr noundef %31, ptr noundef @.str.832, ptr noundef @.str.833, ptr noundef @.str.834, i32 noundef 10, ptr noundef @pref_cc_id_bits)
  %32 = load ptr, ptr %3, align 8
  call void @prefs_register_uint_preference(ptr noundef %32, ptr noundef @.str.835, ptr noundef @.str.836, ptr noundef @.str.837, i32 noundef 10, ptr noundef @pref_ru_port_id_bits)
  %33 = load ptr, ptr %3, align 8
  call void @prefs_register_uint_preference(ptr noundef %33, ptr noundef @.str.838, ptr noundef @.str.839, ptr noundef @.str.840, i32 noundef 10, ptr noundef @pref_sample_bit_width_uplink)
  %34 = load ptr, ptr %3, align 8
  call void @prefs_register_enum_preference(ptr noundef %34, ptr noundef @.str.841, ptr noundef @.str.842, ptr noundef @.str.842, ptr noundef @pref_iqCompressionUplink, ptr noundef @ul_compression_options, i1 noundef zeroext false)
  %35 = load ptr, ptr %3, align 8
  call void @prefs_register_enum_preference(ptr noundef %35, ptr noundef @.str.843, ptr noundef @.str.844, ptr noundef @.str.845, ptr noundef @pref_includeUdCompHeaderUplink, ptr noundef @udcomphdr_present_options, i1 noundef zeroext false)
  %36 = load ptr, ptr %3, align 8
  call void @prefs_register_uint_preference(ptr noundef %36, ptr noundef @.str.846, ptr noundef @.str.847, ptr noundef @.str.848, i32 noundef 10, ptr noundef @pref_sample_bit_width_downlink)
  %37 = load ptr, ptr %3, align 8
  call void @prefs_register_enum_preference(ptr noundef %37, ptr noundef @.str.849, ptr noundef @.str.850, ptr noundef @.str.850, ptr noundef @pref_iqCompressionDownlink, ptr noundef @dl_compression_options, i1 noundef zeroext false)
  %38 = load ptr, ptr %3, align 8
  call void @prefs_register_enum_preference(ptr noundef %38, ptr noundef @.str.851, ptr noundef @.str.852, ptr noundef @.str.853, ptr noundef @pref_includeUdCompHeaderDownlink, ptr noundef @udcomphdr_present_options, i1 noundef zeroext false)
  %39 = load ptr, ptr %3, align 8
  call void @prefs_register_uint_preference(ptr noundef %39, ptr noundef @.str.854, ptr noundef @.str.855, ptr noundef @.str.856, i32 noundef 10, ptr noundef @pref_data_plane_section_total_rbs)
  %40 = load ptr, ptr %3, align 8
  call void @prefs_register_uint_preference(ptr noundef %40, ptr noundef @.str.857, ptr noundef @.str.858, ptr noundef @.str.859, i32 noundef 10, ptr noundef @pref_num_weights_per_bundle)
  %41 = load ptr, ptr %3, align 8
  call void @prefs_register_uint_preference(ptr noundef %41, ptr noundef @.str.860, ptr noundef @.str.861, ptr noundef @.str.862, i32 noundef 10, ptr noundef @pref_num_bf_antennas)
  %42 = load ptr, ptr %3, align 8
  call void @prefs_register_bool_preference(ptr noundef %42, ptr noundef @.str.863, ptr noundef @.str.864, ptr noundef @.str.865, ptr noundef @pref_showIQSampleValues)
  %43 = load ptr, ptr %3, align 8
  call void @prefs_register_obsolete_preference(ptr noundef %43, ptr noundef @.str.866)
  %44 = load ptr, ptr %3, align 8
  call void @prefs_register_enum_preference(ptr noundef %44, ptr noundef @.str.867, ptr noundef @.str.868, ptr noundef @.str.869, ptr noundef @pref_support_udcompLen, ptr noundef @udcomp_support_options, i1 noundef zeroext false)
  %45 = load ptr, ptr %3, align 8
  call void @prefs_register_bool_preference(ptr noundef %45, ptr noundef @.str.870, ptr noundef @.str.871, ptr noundef @.str.872, ptr noundef @st6_4byte_alignment)
  %46 = call ptr @wmem_epan_scope()
  %47 = call ptr @wmem_file_scope()
  %48 = call noalias ptr @wmem_tree_new_autoreset(ptr noundef %46, ptr noundef %47)
  store ptr %48, ptr @flow_states_table, align 8
  %49 = call ptr @wmem_epan_scope()
  %50 = call ptr @wmem_file_scope()
  %51 = call noalias ptr @wmem_tree_new_autoreset(ptr noundef %49, ptr noundef %50)
  store ptr %51, ptr @flow_results_table, align 8
  call void @register_init_routine(ptr noundef @oran_init_protocol)
  call void @llvm.lifetime.end.p0(i64 8, ptr %3) #12
  call void @llvm.lifetime.end.p0(i64 8, ptr %2) #12
  ret void
}