; Function Attrs: null_pointer_is_valid sspstrong uwtable
define hidden void @proto_register_oran() local_unnamed_addr #0 {
  br label %16

1:                                                ; preds = %16
  %2 = tail call i32 @proto_register_protocol(ptr noundef nonnull @.str.822, ptr noundef nonnull @.str.823, ptr noundef nonnull @.str.824)
  store i32 %2, ptr @proto_oran, align 4
  %3 = tail call ptr @register_dissector(ptr noundef nonnull @.str.824, ptr noundef nonnull @dissect_oran, i32 noundef %2)
  %4 = tail call i32 @register_tap(ptr noundef nonnull @.str.825)
  store i32 %4, ptr @oran_tap, align 4
  %5 = load i32, ptr @proto_oran, align 4
  tail call void @proto_register_field_array(i32 noundef %5, ptr noundef nonnull @proto_register_oran.hf, i32 noundef 309)
  tail call void @proto_register_subtree_array(ptr noundef nonnull @proto_register_oran.ett, i32 noundef 38)
  tail call void @proto_register_subtree_array(ptr noundef nonnull @proto_register_oran.ext_ett, i32 noundef 27)
  %6 = load i32, ptr @proto_oran, align 4
  %7 = tail call ptr @expert_register_protocol(i32 noundef %6)
  tail call void @expert_register_field_array(ptr noundef %7, ptr noundef nonnull @proto_register_oran.ei, i32 noundef 42)
  %8 = load i32, ptr @proto_oran, align 4
  %9 = tail call ptr @prefs_register_protocol(i32 noundef %8, ptr noundef null)
  tail call void @prefs_register_uint_preference(ptr noundef %9, ptr noundef nonnull @.str.826, ptr noundef nonnull @.str.827, ptr noundef nonnull @.str.828, i32 noundef 10, ptr noundef nonnull @pref_du_port_id_bits)
  tail call void @prefs_register_uint_preference(ptr noundef %9, ptr noundef nonnull @.str.829, ptr noundef nonnull @.str.830, ptr noundef nonnull @.str.831, i32 noundef 10, ptr noundef nonnull @pref_bandsector_id_bits)
  tail call void @prefs_register_uint_preference(ptr noundef %9, ptr noundef nonnull @.str.832, ptr noundef nonnull @.str.833, ptr noundef nonnull @.str.834, i32 noundef 10, ptr noundef nonnull @pref_cc_id_bits)
  tail call void @prefs_register_uint_preference(ptr noundef %9, ptr noundef nonnull @.str.835, ptr noundef nonnull @.str.836, ptr noundef nonnull @.str.837, i32 noundef 10, ptr noundef nonnull @pref_ru_port_id_bits)
  tail call void @prefs_register_uint_preference(ptr noundef %9, ptr noundef nonnull @.str.838, ptr noundef nonnull @.str.839, ptr noundef nonnull @.str.840, i32 noundef 10, ptr noundef nonnull @pref_sample_bit_width_uplink)
  tail call void @prefs_register_enum_preference(ptr noundef %9, ptr noundef nonnull @.str.841, ptr noundef nonnull @.str.842, ptr noundef nonnull @.str.842, ptr noundef nonnull @pref_iqCompressionUplink, ptr noundef nonnull @ul_compression_options, i1 noundef zeroext false)
  tail call void @prefs_register_enum_preference(ptr noundef %9, ptr noundef nonnull @.str.843, ptr noundef nonnull @.str.844, ptr noundef nonnull @.str.845, ptr noundef nonnull @pref_includeUdCompHeaderUplink, ptr noundef nonnull @udcomphdr_present_options, i1 noundef zeroext false)
  tail call void @prefs_register_uint_preference(ptr noundef %9, ptr noundef nonnull @.str.846, ptr noundef nonnull @.str.847, ptr noundef nonnull @.str.848, i32 noundef 10, ptr noundef nonnull @pref_sample_bit_width_downlink)
  tail call void @prefs_register_enum_preference(ptr noundef %9, ptr noundef nonnull @.str.849, ptr noundef nonnull @.str.850, ptr noundef nonnull @.str.850, ptr noundef nonnull @pref_iqCompressionDownlink, ptr noundef nonnull @dl_compression_options, i1 noundef zeroext false)
  tail call void @prefs_register_enum_preference(ptr noundef %9, ptr noundef nonnull @.str.851, ptr noundef nonnull @.str.852, ptr noundef nonnull @.str.853, ptr noundef nonnull @pref_includeUdCompHeaderDownlink, ptr noundef nonnull @udcomphdr_present_options, i1 noundef zeroext false)
  tail call void @prefs_register_uint_preference(ptr noundef %9, ptr noundef nonnull @.str.854, ptr noundef nonnull @.str.855, ptr noundef nonnull @.str.856, i32 noundef 10, ptr noundef nonnull @pref_data_plane_section_total_rbs)
  tail call void @prefs_register_uint_preference(ptr noundef %9, ptr noundef nonnull @.str.857, ptr noundef nonnull @.str.858, ptr noundef nonnull @.str.859, i32 noundef 10, ptr noundef nonnull @pref_num_weights_per_bundle)
  tail call void @prefs_register_uint_preference(ptr noundef %9, ptr noundef nonnull @.str.860, ptr noundef nonnull @.str.861, ptr noundef nonnull @.str.862, i32 noundef 10, ptr noundef nonnull @pref_num_bf_antennas)
  tail call void @prefs_register_bool_preference(ptr noundef %9, ptr noundef nonnull @.str.863, ptr noundef nonnull @.str.864, ptr noundef nonnull @.str.865, ptr noundef nonnull @pref_showIQSampleValues)
  tail call void @prefs_register_obsolete_preference(ptr noundef %9, ptr noundef nonnull @.str.866)
  tail call void @prefs_register_enum_preference(ptr noundef %9, ptr noundef nonnull @.str.867, ptr noundef nonnull @.str.868, ptr noundef nonnull @.str.869, ptr noundef nonnull @pref_support_udcompLen, ptr noundef nonnull @udcomp_support_options, i1 noundef zeroext false)
  tail call void @prefs_register_bool_preference(ptr noundef %9, ptr noundef nonnull @.str.870, ptr noundef nonnull @.str.871, ptr noundef nonnull @.str.872, ptr noundef nonnull @st6_4byte_alignment)
  %10 = tail call ptr @wmem_epan_scope()
  %11 = tail call ptr @wmem_file_scope()
  %12 = tail call noalias ptr @wmem_tree_new_autoreset(ptr noundef %10, ptr noundef %11)
  store ptr %12, ptr @flow_states_table, align 8
  %13 = tail call ptr @wmem_epan_scope()
  %14 = tail call ptr @wmem_file_scope()
  %15 = tail call noalias ptr @wmem_tree_new_autoreset(ptr noundef %13, ptr noundef %14)
  store ptr %15, ptr @flow_results_table, align 8
  tail call void @register_init_routine(ptr noundef nonnull @oran_init_protocol)
  ret void

16:                                               ; preds = %0, %16
  %indvars.iv = phi i64 [ 0, %0 ], [ %indvars.iv.next, %16 ]
  %17 = getelementptr [27 x i32], ptr @ett_oran_c_section_extension, i64 0, i64 %indvars.iv
  %18 = getelementptr [27 x ptr], ptr @proto_register_oran.ext_ett, i64 0, i64 %indvars.iv
  store ptr %17, ptr %18, align 8
  %indvars.iv.next = add nuw nsw i64 %indvars.iv, 1
  %exitcond.not = icmp eq i64 %indvars.iv.next, 27
  br i1 %exitcond.not, label %1, label %16, !llvm.loop !6
}